target datalayout = "e-m:e-p270:32:32-p271:32:32-p272:64:64-i64:64-i128:128-f80:128-n8:16:32:64-S128"
target triple = "x86_64-pc-linux-gnu"

%struct.Vmem = type { ptr, i64, i64 }
%union.SourceSpan = type { i64 }
%struct.Expr_ = type { ptr, %union.SourceSpan, i16, %union.anon.56 }
%union.anon.56 = type { %struct.ExprAnySwitch }
%struct.ExprAnySwitch = type { i8, %union.anon.58 }
%union.anon.58 = type { %struct.anon.59 }
%struct.anon.59 = type { ptr, %union.SourceSpan, ptr }
%struct.Range = type { i8, i32, i32 }

@expr_arena = external global %struct.Vmem, align 8

; Function Attrs: nounwind uwtable
define internal i32 @exprid(ptr noundef %0) #0 {
  %2 = alloca ptr, align 8
  store ptr %0, ptr %2, align 8
  %3 = load ptr, ptr %2, align 8
  %4 = load ptr, ptr @expr_arena, align 8
  %5 = ptrtoint ptr %3 to i64
  %6 = ptrtoint ptr %4 to i64
  %7 = sub i64 %5, %6
  %8 = sdiv exact i64 %7, 56
  %9 = trunc i64 %8 to i32
  ret i32 %9
}

; Function Attrs: nounwind uwtable
define internal ptr @exprptr(i32 noundef %0) #0 {
  %2 = alloca i32, align 4
  store i32 %0, ptr %2, align 4
  %3 = load ptr, ptr @expr_arena, align 8
  %4 = load i32, ptr %2, align 4
  %5 = zext i32 %4 to i64
  %6 = getelementptr inbounds %struct.Expr_, ptr %3, i64 %5
  ret ptr %6
}

; Function Attrs: nounwind uwtable
define dso_local void @copy_range(ptr noundef %0, ptr noundef %1) #0 {
  %3 = alloca i32, align 4
  %4 = alloca ptr, align 8
  %5 = alloca i32, align 4
  %6 = alloca i32, align 4
  %7 = alloca ptr, align 8
  %8 = alloca i32, align 4
  %9 = alloca ptr, align 8
  %10 = alloca ptr, align 8
  store ptr %0, ptr %9, align 8
  store ptr %1, ptr %10, align 8
  %11 = load ptr, ptr %9, align 8
  %12 = load ptr, ptr %10, align 8
  %13 = getelementptr inbounds %struct.Range, ptr %12, i32 0, i32 1
  %14 = load i32, ptr %13, align 4
  store ptr %11, ptr %4, align 8
  store i32 %14, ptr %5, align 4
  %15 = load i32, ptr %5, align 4
  %16 = icmp ne i32 %15, 0
  br i1 %16, label %18, label %17

17:                                               ; preds = %2
  store i32 0, ptr %3, align 4
  br label %24

18:                                               ; preds = %2
  %19 = load ptr, ptr %4, align 8
  %20 = load i32, ptr %5, align 4
  %21 = call ptr @exprptr(i32 noundef %20)
  %22 = call ptr @copy_expr(ptr noundef %19, ptr noundef %21)
  %23 = call i32 @exprid(ptr noundef %22)
  store i32 %23, ptr %3, align 4
  br label %24

24:                                               ; preds = %18, %17
  %25 = load i32, ptr %3, align 4
  %26 = load ptr, ptr %10, align 8
  %27 = getelementptr inbounds %struct.Range, ptr %26, i32 0, i32 1
  store i32 %25, ptr %27, align 4
  %28 = load ptr, ptr %9, align 8
  %29 = load ptr, ptr %10, align 8
  %30 = getelementptr inbounds %struct.Range, ptr %29, i32 0, i32 2
  %31 = load i32, ptr %30, align 4
  store ptr %28, ptr %7, align 8
  store i32 %31, ptr %8, align 4
  %32 = load i32, ptr %8, align 4
  %33 = icmp ne i32 %32, 0
  br i1 %33, label %35, label %34

34:                                               ; preds = %24
  store i32 0, ptr %6, align 4
  br label %41

35:                                               ; preds = %24
  %36 = load ptr, ptr %7, align 8
  %37 = load i32, ptr %8, align 4
  %38 = call ptr @exprptr(i32 noundef %37)
  %39 = call ptr @copy_expr(ptr noundef %36, ptr noundef %38)
  %40 = call i32 @exprid(ptr noundef %39)
  store i32 %40, ptr %6, align 4
  br label %41

41:                                               ; preds = %35, %34
  %42 = load i32, ptr %6, align 4
  %43 = load ptr, ptr %10, align 8
  %44 = getelementptr inbounds %struct.Range, ptr %43, i32 0, i32 2
  store i32 %42, ptr %44, align 4
  ret void
}