; Function Attrs: nounwind uwtable
define dso_local void @copy_range(ptr noundef %0, ptr nocapture noundef %1) local_unnamed_addr #0 {
  %3 = getelementptr inbounds i8, ptr %1, i64 4
  %4 = load i32, ptr %3, align 4
  %.not = icmp eq i32 %4, 0
  br i1 %.not, label %16, label %5

5:                                                ; preds = %2
  %6 = load ptr, ptr @expr_arena, align 8
  %7 = zext i32 %4 to i64
  %8 = getelementptr inbounds %struct.Expr_, ptr %6, i64 %7
  %9 = tail call fastcc ptr @copy_expr(ptr noundef %0, ptr noundef nonnull %8)
  %10 = load ptr, ptr @expr_arena, align 8
  %11 = ptrtoint ptr %9 to i64
  %12 = ptrtoint ptr %10 to i64
  %13 = sub i64 %11, %12
  %14 = sdiv exact i64 %13, 56
  %15 = trunc i64 %14 to i32
  br label %16

16:                                               ; preds = %2, %5
  %.0 = phi i32 [ %15, %5 ], [ 0, %2 ]
  store i32 %.0, ptr %3, align 4
  %17 = getelementptr inbounds i8, ptr %1, i64 8
  %18 = load i32, ptr %17, align 4
  %.not16 = icmp eq i32 %18, 0
  br i1 %.not16, label %30, label %19

19:                                               ; preds = %16
  %20 = load ptr, ptr @expr_arena, align 8
  %21 = zext i32 %18 to i64
  %22 = getelementptr inbounds %struct.Expr_, ptr %20, i64 %21
  %23 = tail call fastcc ptr @copy_expr(ptr noundef %0, ptr noundef nonnull %22)
  %24 = load ptr, ptr @expr_arena, align 8
  %25 = ptrtoint ptr %23 to i64
  %26 = ptrtoint ptr %24 to i64
  %27 = sub i64 %25, %26
  %28 = sdiv exact i64 %27, 56
  %29 = trunc i64 %28 to i32
  br label %30

30:                                               ; preds = %16, %19
  %.013 = phi i32 [ %29, %19 ], [ 0, %16 ]
  store i32 %.013, ptr %17, align 4
  ret void
}